target datalayout = "e-m:e-p270:32:32-p271:32:32-p272:64:64-i64:64-i128:128-f80:128-n8:16:32:64-S128"
target triple = "x86_64-pc-linux-gnu"

@query_formats.sample_fmts = internal constant [2 x i32] [i32 8, i32 -1], align 4
@__const.query_formats.sample_rates = private unnamed_addr constant [2 x i32] [i32 48000, i32 -1], align 4

; Function Attrs: nounwind uwtable
define internal i32 @query_formats(ptr noundef %0, ptr noundef %1, ptr noundef %2) #1 {
  %4 = alloca i32, align 4
  %5 = alloca ptr, align 8
  %6 = alloca ptr, align 8
  %7 = alloca ptr, align 8
  %8 = alloca i32, align 4
  %9 = alloca [2 x i32], align 4
  %10 = alloca i32, align 4
  store ptr %0, ptr %5, align 8, !tbaa !4
  store ptr %1, ptr %6, align 8, !tbaa !38
  store ptr %2, ptr %7, align 8, !tbaa !38
  call void @llvm.lifetime.start.p0(i64 4, ptr %8) #11
  call void @llvm.lifetime.start.p0(i64 8, ptr %9) #11
  call void @llvm.memcpy.p0.p0.i64(ptr align 4 %9, ptr align 4 @__const.query_formats.sample_rates, i64 8, i1 false)
  %11 = load ptr, ptr %5, align 8, !tbaa !4
  %12 = load ptr, ptr %6, align 8, !tbaa !38
  %13 = load ptr, ptr %7, align 8, !tbaa !38
  %14 = call i32 @ff_set_common_formats_from_list2(ptr noundef %11, ptr noundef %12, ptr noundef %13, ptr noundef @query_formats.sample_fmts)
  store i32 %14, ptr %8, align 4, !tbaa !29
  %15 = load i32, ptr %8, align 4, !tbaa !29
  %16 = icmp slt i32 %15, 0
  br i1 %16, label %17, label %19

17:                                               ; preds = %3
  %18 = load i32, ptr %8, align 4, !tbaa !29
  store i32 %18, ptr %4, align 4
  store i32 1, ptr %10, align 4
  br label %25

19:                                               ; preds = %3
  %20 = load ptr, ptr %5, align 8, !tbaa !4
  %21 = load ptr, ptr %6, align 8, !tbaa !38
  %22 = load ptr, ptr %7, align 8, !tbaa !38
  %23 = getelementptr inbounds [2 x i32], ptr %9, i64 0, i64 0
  %24 = call i32 @ff_set_common_samplerates_from_list2(ptr noundef %20, ptr noundef %21, ptr noundef %22, ptr noundef %23)
  store i32 %24, ptr %4, align 4
  store i32 1, ptr %10, align 4
  br label %25

25:                                               ; preds = %19, %17
  call void @llvm.lifetime.end.p0(i64 8, ptr %9) #11
  call void @llvm.lifetime.end.p0(i64 4, ptr %8) #11
  %26 = load i32, ptr %4, align 4
  ret i32 %26
}