; Function Attrs: nounwind uwtable
define internal i32 @query_formats(ptr noundef %0, ptr noundef %1, ptr noundef %2) #1 {
  %4 = alloca [2 x i32], align 8
  call void @llvm.lifetime.start.p0(i64 8, ptr nonnull %4) #11
  store i64 -4294919296, ptr %4, align 8
  %5 = tail call i32 @ff_set_common_formats_from_list2(ptr noundef %0, ptr noundef %1, ptr noundef %2, ptr noundef nonnull @query_formats.sample_fmts) #11
  %6 = icmp slt i32 %5, 0
  br i1 %6, label %9, label %7

7:                                                ; preds = %3
  %8 = call i32 @ff_set_common_samplerates_from_list2(ptr noundef %0, ptr noundef %1, ptr noundef %2, ptr noundef nonnull %4) #11
  br label %9

9:                                                ; preds = %3, %7
  %.0 = phi i32 [ %8, %7 ], [ %5, %3 ]
  call void @llvm.lifetime.end.p0(i64 8, ptr nonnull %4) #11
  ret i32 %.0
}